target datalayout = "e-m:e-p270:32:32-p271:32:32-p272:64:64-i64:64-i128:128-f80:128-n8:16:32:64-S128"
target triple = "x86_64-pc-linux-gnu"

%struct.Gia_ManSup_t_ = type { i32, i32, ptr, ptr, ptr, i32, i32, ptr, ptr, ptr, ptr }
%struct.Vec_Ptr_t_ = type { i32, i32, ptr }
%struct.Vec_Int_t_ = type { i32, i32, ptr }

@__const.Vec_PtrAllocTruthTables.Masks = private unnamed_addr constant [5 x i32] [i32 -1431655766, i32 -858993460, i32 -252645136, i32 -16711936, i32 -65536], align 16

; Function Attrs: inlinehint nounwind uwtable
define internal ptr @Vec_PtrAllocArray(ptr noundef %0, i32 noundef %1) #3 {
  %3 = alloca ptr, align 8
  %4 = alloca i32, align 4
  %5 = alloca ptr, align 8
  store ptr %0, ptr %3, align 8, !tbaa !26
  store i32 %1, ptr %4, align 4, !tbaa !3
  call void @llvm.lifetime.start.p0(i64 8, ptr %5) #10
  %6 = call noalias ptr @malloc(i64 noundef 16) #12
  store ptr %6, ptr %5, align 8, !tbaa !23
  %7 = load i32, ptr %4, align 4, !tbaa !3
  %8 = load ptr, ptr %5, align 8, !tbaa !23
  %9 = getelementptr inbounds nuw %struct.Vec_Ptr_t_, ptr %8, i32 0, i32 1
  store i32 %7, ptr %9, align 4, !tbaa !65
  %10 = load i32, ptr %4, align 4, !tbaa !3
  %11 = load ptr, ptr %5, align 8, !tbaa !23
  %12 = getelementptr inbounds nuw %struct.Vec_Ptr_t_, ptr %11, i32 0, i32 0
  store i32 %10, ptr %12, align 8, !tbaa !66
  %13 = load ptr, ptr %3, align 8, !tbaa !26
  %14 = load ptr, ptr %5, align 8, !tbaa !23
  %15 = getelementptr inbounds nuw %struct.Vec_Ptr_t_, ptr %14, i32 0, i32 2
  store ptr %13, ptr %15, align 8, !tbaa !24
  %16 = load ptr, ptr %5, align 8, !tbaa !23
  call void @llvm.lifetime.end.p0(i64 8, ptr %5) #10
  ret ptr %16
}

; Function Attrs: inlinehint nounwind uwtable
define internal ptr @Vec_IntAlloc(i32 noundef %0) #3 {
  %2 = alloca i32, align 4
  %3 = alloca ptr, align 8
  store i32 %0, ptr %2, align 4, !tbaa !3
  call void @llvm.lifetime.start.p0(i64 8, ptr %3) #10
  %4 = call noalias ptr @malloc(i64 noundef 16) #12
  store ptr %4, ptr %3, align 8, !tbaa !33
  %5 = load i32, ptr %2, align 4, !tbaa !3
  %6 = icmp sgt i32 %5, 0
  br i1 %6, label %7, label %11

7:                                                ; preds = %1
  %8 = load i32, ptr %2, align 4, !tbaa !3
  %9 = icmp slt i32 %8, 16
  br i1 %9, label %10, label %11

10:                                               ; preds = %7
  store i32 16, ptr %2, align 4, !tbaa !3
  br label %11

11:                                               ; preds = %10, %7, %1
  %12 = load ptr, ptr %3, align 8, !tbaa !33
  %13 = getelementptr inbounds nuw %struct.Vec_Int_t_, ptr %12, i32 0, i32 1
  store i32 0, ptr %13, align 4, !tbaa !34
  %14 = load i32, ptr %2, align 4, !tbaa !3
  %15 = load ptr, ptr %3, align 8, !tbaa !33
  %16 = getelementptr inbounds nuw %struct.Vec_Int_t_, ptr %15, i32 0, i32 0
  store i32 %14, ptr %16, align 8, !tbaa !36
  %17 = load ptr, ptr %3, align 8, !tbaa !33
  %18 = getelementptr inbounds nuw %struct.Vec_Int_t_, ptr %17, i32 0, i32 0
  %19 = load i32, ptr %18, align 8, !tbaa !36
  %20 = icmp ne i32 %19, 0
  br i1 %20, label %21, label %28

21:                                               ; preds = %11
  %22 = load ptr, ptr %3, align 8, !tbaa !33
  %23 = getelementptr inbounds nuw %struct.Vec_Int_t_, ptr %22, i32 0, i32 0
  %24 = load i32, ptr %23, align 8, !tbaa !36
  %25 = sext i32 %24 to i64
  %26 = mul i64 4, %25
  %27 = call noalias ptr @malloc(i64 noundef %26) #12
  br label %29

28:                                               ; preds = %11
  br label %29

29:                                               ; preds = %28, %21
  %30 = phi ptr [ %27, %21 ], [ null, %28 ]
  %31 = load ptr, ptr %3, align 8, !tbaa !33
  %32 = getelementptr inbounds nuw %struct.Vec_Int_t_, ptr %31, i32 0, i32 2
  store ptr %30, ptr %32, align 8, !tbaa !37
  %33 = load ptr, ptr %3, align 8, !tbaa !33
  call void @llvm.lifetime.end.p0(i64 8, ptr %3) #10
  ret ptr %33
}

; Function Attrs: inlinehint nounwind uwtable
define internal ptr @Vec_PtrAllocSimInfo(i32 noundef %0, i32 noundef %1) #3 {
  %3 = alloca i32, align 4
  %4 = alloca i32, align 4
  %5 = alloca ptr, align 8
  %6 = alloca ptr, align 8
  %7 = alloca i32, align 4
  store i32 %0, ptr %3, align 4, !tbaa !3
  store i32 %1, ptr %4, align 4, !tbaa !3
  call void @llvm.lifetime.start.p0(i64 8, ptr %5) #10
  call void @llvm.lifetime.start.p0(i64 8, ptr %6) #10
  call void @llvm.lifetime.start.p0(i64 4, ptr %7) #10
  %8 = load i32, ptr %4, align 4, !tbaa !3
  %9 = sext i32 %8 to i64
  %10 = mul i64 4, %9
  %11 = add i64 8, %10
  %12 = load i32, ptr %3, align 4, !tbaa !3
  %13 = sext i32 %12 to i64
  %14 = mul i64 %11, %13
  %15 = mul i64 1, %14
  %16 = call noalias ptr @malloc(i64 noundef %15) #12
  store ptr %16, ptr %5, align 8, !tbaa !26
  %17 = load ptr, ptr %5, align 8, !tbaa !26
  %18 = load i32, ptr %3, align 4, !tbaa !3
  %19 = sext i32 %18 to i64
  %20 = getelementptr inbounds ptr, ptr %17, i64 %19
  store ptr %20, ptr %6, align 8, !tbaa !27
  store i32 0, ptr %7, align 4, !tbaa !3
  br label %21

21:                                               ; preds = %36, %2
  %22 = load i32, ptr %7, align 4, !tbaa !3
  %23 = load i32, ptr %3, align 4, !tbaa !3
  %24 = icmp slt i32 %22, %23
  br i1 %24, label %25, label %39

25:                                               ; preds = %21
  %26 = load ptr, ptr %6, align 8, !tbaa !27
  %27 = load i32, ptr %7, align 4, !tbaa !3
  %28 = load i32, ptr %4, align 4, !tbaa !3
  %29 = mul nsw i32 %27, %28
  %30 = sext i32 %29 to i64
  %31 = getelementptr inbounds i32, ptr %26, i64 %30
  %32 = load ptr, ptr %5, align 8, !tbaa !26
  %33 = load i32, ptr %7, align 4, !tbaa !3
  %34 = sext i32 %33 to i64
  %35 = getelementptr inbounds ptr, ptr %32, i64 %34
  store ptr %31, ptr %35, align 8, !tbaa !26
  br label %36

36:                                               ; preds = %25
  %37 = load i32, ptr %7, align 4, !tbaa !3
  %38 = add nsw i32 %37, 1
  store i32 %38, ptr %7, align 4, !tbaa !3
  br label %21, !llvm.loop !32

39:                                               ; preds = %21
  %40 = load ptr, ptr %5, align 8, !tbaa !26
  %41 = load i32, ptr %3, align 4, !tbaa !3
  %42 = call ptr @Vec_PtrAllocArray(ptr noundef %40, i32 noundef %41)
  call void @llvm.lifetime.end.p0(i64 4, ptr %7) #10
  call void @llvm.lifetime.end.p0(i64 8, ptr %6) #10
  call void @llvm.lifetime.end.p0(i64 8, ptr %5) #10
  ret ptr %42
}

; Function Attrs: inlinehint nounwind uwtable
define internal ptr @Vec_PtrAllocTruthTables(i32 noundef %0) #3 {
  %2 = alloca i32, align 4
  %3 = alloca ptr, align 8
  %4 = alloca [5 x i32], align 16
  %5 = alloca ptr, align 8
  %6 = alloca i32, align 4
  %7 = alloca i32, align 4
  %8 = alloca i32, align 4
  store i32 %0, ptr %2, align 4, !tbaa !3
  call void @llvm.lifetime.start.p0(i64 8, ptr %3) #10
  call void @llvm.lifetime.start.p0(i64 20, ptr %4) #10
  call void @llvm.memcpy.p0.p0.i64(ptr align 16 %4, ptr align 16 @__const.Vec_PtrAllocTruthTables.Masks, i64 20, i1 false)
  call void @llvm.lifetime.start.p0(i64 8, ptr %5) #10
  call void @llvm.lifetime.start.p0(i64 4, ptr %6) #10
  call void @llvm.lifetime.start.p0(i64 4, ptr %7) #10
  call void @llvm.lifetime.start.p0(i64 4, ptr %8) #10
  %9 = load i32, ptr %2, align 4, !tbaa !3
  %10 = icmp sle i32 %9, 5
  br i1 %10, label %11, label %12

11:                                               ; preds = %1
  br label %16

12:                                               ; preds = %1
  %13 = load i32, ptr %2, align 4, !tbaa !3
  %14 = sub nsw i32 %13, 5
  %15 = shl i32 1, %14
  br label %16

16:                                               ; preds = %12, %11
  %17 = phi i32 [ 1, %11 ], [ %15, %12 ]
  store i32 %17, ptr %8, align 4, !tbaa !3
  %18 = load i32, ptr %2, align 4, !tbaa !3
  %19 = load i32, ptr %8, align 4, !tbaa !3
  %20 = call ptr @Vec_PtrAllocSimInfo(i32 noundef %18, i32 noundef %19)
  store ptr %20, ptr %3, align 8, !tbaa !23
  store i32 0, ptr %6, align 4, !tbaa !3
  br label %21

21:                                               ; preds = %81, %16
  %22 = load i32, ptr %6, align 4, !tbaa !3
  %23 = load i32, ptr %2, align 4, !tbaa !3
  %24 = icmp slt i32 %22, %23
  br i1 %24, label %25, label %84

25:                                               ; preds = %21
  %26 = load ptr, ptr %3, align 8, !tbaa !23
  %27 = getelementptr inbounds nuw %struct.Vec_Ptr_t_, ptr %26, i32 0, i32 2
  %28 = load ptr, ptr %27, align 8, !tbaa !24
  %29 = load i32, ptr %6, align 4, !tbaa !3
  %30 = sext i32 %29 to i64
  %31 = getelementptr inbounds ptr, ptr %28, i64 %30
  %32 = load ptr, ptr %31, align 8, !tbaa !26
  store ptr %32, ptr %5, align 8, !tbaa !27
  %33 = load i32, ptr %6, align 4, !tbaa !3
  %34 = icmp slt i32 %33, 5
  br i1 %34, label %35, label %53

35:                                               ; preds = %25
  store i32 0, ptr %7, align 4, !tbaa !3
  br label %36

36:                                               ; preds = %49, %35
  %37 = load i32, ptr %7, align 4, !tbaa !3
  %38 = load i32, ptr %8, align 4, !tbaa !3
  %39 = icmp slt i32 %37, %38
  br i1 %39, label %40, label %52

40:                                               ; preds = %36
  %41 = load i32, ptr %6, align 4, !tbaa !3
  %42 = sext i32 %41 to i64
  %43 = getelementptr inbounds [5 x i32], ptr %4, i64 0, i64 %42
  %44 = load i32, ptr %43, align 4, !tbaa !3
  %45 = load ptr, ptr %5, align 8, !tbaa !27
  %46 = load i32, ptr %7, align 4, !tbaa !3
  %47 = sext i32 %46 to i64
  %48 = getelementptr inbounds i32, ptr %45, i64 %47
  store i32 %44, ptr %48, align 4, !tbaa !3
  br label %49

49:                                               ; preds = %40
  %50 = load i32, ptr %7, align 4, !tbaa !3
  %51 = add nsw i32 %50, 1
  store i32 %51, ptr %7, align 4, !tbaa !3
  br label %36, !llvm.loop !28

52:                                               ; preds = %36
  br label %80

53:                                               ; preds = %25
  store i32 0, ptr %7, align 4, !tbaa !3
  br label %54

54:                                               ; preds = %76, %53
  %55 = load i32, ptr %7, align 4, !tbaa !3
  %56 = load i32, ptr %8, align 4, !tbaa !3
  %57 = icmp slt i32 %55, %56
  br i1 %57, label %58, label %79

58:                                               ; preds = %54
  %59 = load i32, ptr %7, align 4, !tbaa !3
  %60 = load i32, ptr %6, align 4, !tbaa !3
  %61 = sub nsw i32 %60, 5
  %62 = shl i32 1, %61
  %63 = and i32 %59, %62
  %64 = icmp ne i32 %63, 0
  br i1 %64, label %65, label %70

65:                                               ; preds = %58
  %66 = load ptr, ptr %5, align 8, !tbaa !27
  %67 = load i32, ptr %7, align 4, !tbaa !3
  %68 = sext i32 %67 to i64
  %69 = getelementptr inbounds i32, ptr %66, i64 %68
  store i32 -1, ptr %69, align 4, !tbaa !3
  br label %75

70:                                               ; preds = %58
  %71 = load ptr, ptr %5, align 8, !tbaa !27
  %72 = load i32, ptr %7, align 4, !tbaa !3
  %73 = sext i32 %72 to i64
  %74 = getelementptr inbounds i32, ptr %71, i64 %73
  store i32 0, ptr %74, align 4, !tbaa !3
  br label %75

75:                                               ; preds = %70, %65
  br label %76

76:                                               ; preds = %75
  %77 = load i32, ptr %7, align 4, !tbaa !3
  %78 = add nsw i32 %77, 1
  store i32 %78, ptr %7, align 4, !tbaa !3
  br label %54, !llvm.loop !30

79:                                               ; preds = %54
  br label %80

80:                                               ; preds = %79, %52
  br label %81

81:                                               ; preds = %80
  %82 = load i32, ptr %6, align 4, !tbaa !3
  %83 = add nsw i32 %82, 1
  store i32 %83, ptr %6, align 4, !tbaa !3
  br label %21, !llvm.loop !31

84:                                               ; preds = %21
  %85 = load ptr, ptr %3, align 8, !tbaa !23
  call void @llvm.lifetime.end.p0(i64 4, ptr %8) #10
  call void @llvm.lifetime.end.p0(i64 4, ptr %7) #10
  call void @llvm.lifetime.end.p0(i64 4, ptr %6) #10
  call void @llvm.lifetime.end.p0(i64 8, ptr %5) #10
  call void @llvm.lifetime.end.p0(i64 20, ptr %4) #10
  call void @llvm.lifetime.end.p0(i64 8, ptr %3) #10
  ret ptr %85
}

; Function Attrs: inlinehint nounwind uwtable
define internal i32 @Kit_TruthWordNum(i32 noundef %0) #3 {
  %2 = alloca i32, align 4
  store i32 %0, ptr %2, align 4, !tbaa !3
  %3 = load i32, ptr %2, align 4, !tbaa !3
  %4 = icmp sle i32 %3, 5
  br i1 %4, label %5, label %6

5:                                                ; preds = %1
  br label %10

6:                                                ; preds = %1
  %7 = load i32, ptr %2, align 4, !tbaa !3
  %8 = sub nsw i32 %7, 5
  %9 = shl i32 1, %8
  br label %10

10:                                               ; preds = %6, %5
  %11 = phi i32 [ 1, %5 ], [ %9, %6 ]
  ret i32 %11
}

; Function Attrs: nounwind uwtable
define ptr @Gia_ManSupStart(i32 noundef %0) #0 {
  %2 = alloca i32, align 4
  %3 = alloca ptr, align 8
  store i32 %0, ptr %2, align 4, !tbaa !3
  call void @llvm.lifetime.start.p0(i64 8, ptr %3) #10
  %4 = call noalias ptr @calloc(i64 noundef 1, i64 noundef 72) #11
  store ptr %4, ptr %3, align 8, !tbaa !7
  %5 = load i32, ptr %2, align 4, !tbaa !3
  %6 = load ptr, ptr %3, align 8, !tbaa !7
  %7 = getelementptr inbounds nuw %struct.Gia_ManSup_t_, ptr %6, i32 0, i32 0
  store i32 %5, ptr %7, align 8, !tbaa !10
  %8 = load ptr, ptr %3, align 8, !tbaa !7
  %9 = getelementptr inbounds nuw %struct.Gia_ManSup_t_, ptr %8, i32 0, i32 0
  %10 = load i32, ptr %9, align 8, !tbaa !10
  %11 = call i32 @Kit_TruthWordNum(i32 noundef %10)
  %12 = load ptr, ptr %3, align 8, !tbaa !7
  %13 = getelementptr inbounds nuw %struct.Gia_ManSup_t_, ptr %12, i32 0, i32 1
  store i32 %11, ptr %13, align 4, !tbaa !16
  %14 = load ptr, ptr %3, align 8, !tbaa !7
  %15 = getelementptr inbounds nuw %struct.Gia_ManSup_t_, ptr %14, i32 0, i32 0
  %16 = load i32, ptr %15, align 8, !tbaa !10
  %17 = call ptr @Vec_PtrAllocTruthTables(i32 noundef %16)
  %18 = load ptr, ptr %3, align 8, !tbaa !7
  %19 = getelementptr inbounds nuw %struct.Gia_ManSup_t_, ptr %18, i32 0, i32 2
  store ptr %17, ptr %19, align 8, !tbaa !17
  %20 = load ptr, ptr %3, align 8, !tbaa !7
  %21 = getelementptr inbounds nuw %struct.Gia_ManSup_t_, ptr %20, i32 0, i32 1
  %22 = load i32, ptr %21, align 4, !tbaa !16
  %23 = call ptr @Vec_PtrAllocSimInfo(i32 noundef 512, i32 noundef %22)
  %24 = load ptr, ptr %3, align 8, !tbaa !7
  %25 = getelementptr inbounds nuw %struct.Gia_ManSup_t_, ptr %24, i32 0, i32 3
  store ptr %23, ptr %25, align 8, !tbaa !18
  %26 = call ptr @Vec_IntAlloc(i32 noundef 512)
  %27 = load ptr, ptr %3, align 8, !tbaa !7
  %28 = getelementptr inbounds nuw %struct.Gia_ManSup_t_, ptr %27, i32 0, i32 7
  store ptr %26, ptr %28, align 8, !tbaa !19
  %29 = call ptr @Vec_IntAlloc(i32 noundef 512)
  %30 = load ptr, ptr %3, align 8, !tbaa !7
  %31 = getelementptr inbounds nuw %struct.Gia_ManSup_t_, ptr %30, i32 0, i32 8
  store ptr %29, ptr %31, align 8, !tbaa !20
  %32 = load ptr, ptr %3, align 8, !tbaa !7
  %33 = getelementptr inbounds nuw %struct.Gia_ManSup_t_, ptr %32, i32 0, i32 1
  %34 = load i32, ptr %33, align 4, !tbaa !16
  %35 = sext i32 %34 to i64
  %36 = mul i64 4, %35
  %37 = call noalias ptr @malloc(i64 noundef %36) #12
  %38 = load ptr, ptr %3, align 8, !tbaa !7
  %39 = getelementptr inbounds nuw %struct.Gia_ManSup_t_, ptr %38, i32 0, i32 9
  store ptr %37, ptr %39, align 8, !tbaa !21
  %40 = load ptr, ptr %3, align 8, !tbaa !7
  %41 = getelementptr inbounds nuw %struct.Gia_ManSup_t_, ptr %40, i32 0, i32 1
  %42 = load i32, ptr %41, align 4, !tbaa !16
  %43 = sext i32 %42 to i64
  %44 = mul i64 4, %43
  %45 = call noalias ptr @malloc(i64 noundef %44) #12
  %46 = load ptr, ptr %3, align 8, !tbaa !7
  %47 = getelementptr inbounds nuw %struct.Gia_ManSup_t_, ptr %46, i32 0, i32 10
  store ptr %45, ptr %47, align 8, !tbaa !22
  %48 = load ptr, ptr %3, align 8, !tbaa !7
  call void @llvm.lifetime.end.p0(i64 8, ptr %3) #10
  ret ptr %48
}