; Function Attrs: nofree nounwind memory(readwrite, argmem: write) uwtable
define noalias noundef ptr @Gia_ManSupStart(i32 noundef %0) local_unnamed_addr #0 {
  %2 = tail call noalias dereferenceable_or_null(72) ptr @calloc(i64 noundef 1, i64 noundef 72) #12
  store i32 %0, ptr %2, align 8, !tbaa !3
  %3 = icmp slt i32 %0, 6
  %4 = add nsw i32 %0, -5
  %5 = shl nuw i32 1, %4
  %.fr.i = freeze i32 %5
  %6 = select i1 %3, i32 1, i32 %.fr.i
  %7 = getelementptr inbounds nuw i8, ptr %2, i64 4
  store i32 %6, ptr %7, align 4, !tbaa !13
  %8 = sext i32 %6 to i64
  %9 = shl nsw i64 %8, 2
  %10 = add nsw i64 %9, 8
  %11 = sext i32 %0 to i64
  %12 = mul i64 %10, %11
  %13 = tail call noalias ptr @malloc(i64 noundef %12) #13
  %14 = getelementptr inbounds ptr, ptr %13, i64 %11
  %15 = icmp sgt i32 %0, 0
  br i1 %15, label %.lr.ph.preheader.i.i, label %Vec_PtrAllocSimInfo.exit.i

.lr.ph.preheader.i.i:                             ; preds = %1
  %wide.trip.count.i.i = zext nneg i32 %0 to i64
  br label %.lr.ph.i.i

.lr.ph.i.i:                                       ; preds = %.lr.ph.i.i, %.lr.ph.preheader.i.i
  %indvars.iv.i.i = phi i64 [ 0, %.lr.ph.preheader.i.i ], [ %indvars.iv.next.i.i, %.lr.ph.i.i ]
  %16 = mul nsw i64 %indvars.iv.i.i, %8
  %17 = getelementptr inbounds i32, ptr %14, i64 %16
  %18 = getelementptr inbounds nuw ptr, ptr %13, i64 %indvars.iv.i.i
  store ptr %17, ptr %18, align 8, !tbaa !14
  %indvars.iv.next.i.i = add nuw nsw i64 %indvars.iv.i.i, 1
  %exitcond.not.i.i = icmp eq i64 %indvars.iv.next.i.i, %wide.trip.count.i.i
  br i1 %exitcond.not.i.i, label %Vec_PtrAllocSimInfo.exit.i, label %.lr.ph.i.i, !llvm.loop !15

Vec_PtrAllocSimInfo.exit.i:                       ; preds = %.lr.ph.i.i, %1
  %19 = tail call noalias dereferenceable_or_null(16) ptr @malloc(i64 noundef 16) #13
  %20 = getelementptr inbounds nuw i8, ptr %19, i64 4
  store i32 %0, ptr %20, align 4, !tbaa !17
  store i32 %0, ptr %19, align 8, !tbaa !19
  %21 = getelementptr inbounds nuw i8, ptr %19, i64 8
  store ptr %13, ptr %21, align 8, !tbaa !20
  %22 = icmp sgt i32 %6, 0
  %or.cond.i = and i1 %15, %22
  br i1 %or.cond.i, label %.lr.ph33.split.us.split.us.preheader.i, label %Vec_PtrAllocTruthTables.exit

.lr.ph33.split.us.split.us.preheader.i:           ; preds = %Vec_PtrAllocSimInfo.exit.i
  %wide.trip.count77.i = zext nneg i32 %0 to i64
  %wide.trip.count67.i = zext nneg i32 %6 to i64
  br label %.lr.ph33.split.us.split.us.i

.lr.ph33.split.us.split.us.i:                     ; preds = %..loopexit27_crit_edge.us.us.i, %.lr.ph33.split.us.split.us.preheader.i
  %indvars.iv74.i = phi i64 [ 0, %.lr.ph33.split.us.split.us.preheader.i ], [ %indvars.iv.next75.i, %..loopexit27_crit_edge.us.us.i ]
  %23 = getelementptr inbounds nuw ptr, ptr %13, i64 %indvars.iv74.i
  %24 = load ptr, ptr %23, align 8, !tbaa !14
  %25 = icmp samesign ult i64 %indvars.iv74.i, 5
  br i1 %25, label %.preheader.us.us.i, label %.preheader26.us.us.i

26:                                               ; preds = %.preheader26.us.us.i, %26
  %indvars.iv64.i = phi i64 [ 0, %.preheader26.us.us.i ], [ %indvars.iv.next65.i, %26 ]
  %27 = trunc nuw nsw i64 %indvars.iv64.i to i32
  %28 = and i32 %36, %27
  %.not.us.us.i = icmp ne i32 %28, 0
  %spec.select.i = sext i1 %.not.us.us.i to i32
  %29 = getelementptr inbounds nuw i32, ptr %24, i64 %indvars.iv64.i
  store i32 %spec.select.i, ptr %29, align 4, !tbaa !21
  %indvars.iv.next65.i = add nuw nsw i64 %indvars.iv64.i, 1
  %exitcond68.not.i = icmp eq i64 %indvars.iv.next65.i, %wide.trip.count67.i
  br i1 %exitcond68.not.i, label %..loopexit27_crit_edge.us.us.i, label %26, !llvm.loop !22

..loopexit27_crit_edge.us.us.i:                   ; preds = %26, %30
  %indvars.iv.next75.i = add nuw nsw i64 %indvars.iv74.i, 1
  %exitcond78.not.i = icmp eq i64 %indvars.iv.next75.i, %wide.trip.count77.i
  br i1 %exitcond78.not.i, label %Vec_PtrAllocTruthTables.exit, label %.lr.ph33.split.us.split.us.i, !llvm.loop !23

30:                                               ; preds = %.preheader.us.us.i, %30
  %indvars.iv69.i = phi i64 [ 0, %.preheader.us.us.i ], [ %indvars.iv.next70.i, %30 ]
  %31 = getelementptr inbounds nuw i32, ptr %24, i64 %indvars.iv69.i
  store i32 %33, ptr %31, align 4, !tbaa !21
  %indvars.iv.next70.i = add nuw nsw i64 %indvars.iv69.i, 1
  %exitcond73.not.i = icmp eq i64 %indvars.iv.next70.i, %wide.trip.count67.i
  br i1 %exitcond73.not.i, label %..loopexit27_crit_edge.us.us.i, label %30, !llvm.loop !24

.preheader.us.us.i:                               ; preds = %.lr.ph33.split.us.split.us.i
  %32 = getelementptr inbounds nuw [5 x i32], ptr @__const.Vec_PtrAllocTruthTables.Masks, i64 0, i64 %indvars.iv74.i
  %33 = load i32, ptr %32, align 4, !tbaa !21
  br label %30

.preheader26.us.us.i:                             ; preds = %.lr.ph33.split.us.split.us.i
  %34 = trunc i64 %indvars.iv74.i to i32
  %35 = add i32 %34, -5
  %36 = shl nuw i32 1, %35
  br label %26

Vec_PtrAllocTruthTables.exit:                     ; preds = %..loopexit27_crit_edge.us.us.i, %Vec_PtrAllocSimInfo.exit.i
  %37 = getelementptr inbounds nuw i8, ptr %2, i64 8
  store ptr %19, ptr %37, align 8, !tbaa !25
  %38 = shl nsw i64 %8, 11
  %39 = add nsw i64 %38, 4096
  %40 = tail call noalias ptr @malloc(i64 noundef %39) #13
  %41 = getelementptr inbounds nuw i8, ptr %40, i64 4096
  br label %.lr.ph.i

.lr.ph.i:                                         ; preds = %.lr.ph.i, %Vec_PtrAllocTruthTables.exit
  %indvars.iv.i = phi i64 [ 0, %Vec_PtrAllocTruthTables.exit ], [ %indvars.iv.next.i, %.lr.ph.i ]
  %42 = mul nsw i64 %indvars.iv.i, %8
  %43 = getelementptr inbounds i32, ptr %41, i64 %42
  %44 = getelementptr inbounds nuw ptr, ptr %40, i64 %indvars.iv.i
  store ptr %43, ptr %44, align 8, !tbaa !14
  %indvars.iv.next.i = add nuw nsw i64 %indvars.iv.i, 1
  %exitcond.not.i = icmp eq i64 %indvars.iv.next.i, 512
  br i1 %exitcond.not.i, label %Vec_PtrAllocSimInfo.exit, label %.lr.ph.i, !llvm.loop !15

Vec_PtrAllocSimInfo.exit:                         ; preds = %.lr.ph.i
  %45 = tail call noalias dereferenceable_or_null(16) ptr @malloc(i64 noundef 16) #13
  %46 = getelementptr inbounds nuw i8, ptr %45, i64 4
  store i32 512, ptr %46, align 4, !tbaa !17
  store i32 512, ptr %45, align 8, !tbaa !19
  %47 = getelementptr inbounds nuw i8, ptr %45, i64 8
  store ptr %40, ptr %47, align 8, !tbaa !20
  %48 = getelementptr inbounds nuw i8, ptr %2, i64 16
  store ptr %45, ptr %48, align 8, !tbaa !26
  %49 = tail call noalias dereferenceable_or_null(16) ptr @malloc(i64 noundef 16) #13
  %50 = getelementptr inbounds nuw i8, ptr %49, i64 4
  store i32 0, ptr %50, align 4, !tbaa !27
  store i32 512, ptr %49, align 8, !tbaa !29
  %51 = tail call noalias dereferenceable_or_null(2048) ptr @malloc(i64 noundef 2048) #13
  %52 = getelementptr inbounds nuw i8, ptr %49, i64 8
  store ptr %51, ptr %52, align 8, !tbaa !30
  %53 = getelementptr inbounds nuw i8, ptr %2, i64 40
  store ptr %49, ptr %53, align 8, !tbaa !31
  %54 = tail call noalias dereferenceable_or_null(16) ptr @malloc(i64 noundef 16) #13
  %55 = getelementptr inbounds nuw i8, ptr %54, i64 4
  store i32 0, ptr %55, align 4, !tbaa !27
  store i32 512, ptr %54, align 8, !tbaa !29
  %56 = tail call noalias dereferenceable_or_null(2048) ptr @malloc(i64 noundef 2048) #13
  %57 = getelementptr inbounds nuw i8, ptr %54, i64 8
  store ptr %56, ptr %57, align 8, !tbaa !30
  %58 = getelementptr inbounds nuw i8, ptr %2, i64 48
  store ptr %54, ptr %58, align 8, !tbaa !32
  %59 = tail call noalias ptr @malloc(i64 noundef %9) #13
  %60 = getelementptr inbounds nuw i8, ptr %2, i64 56
  store ptr %59, ptr %60, align 8, !tbaa !33
  %61 = tail call noalias ptr @malloc(i64 noundef %9) #13
  %62 = getelementptr inbounds nuw i8, ptr %2, i64 64
  store ptr %61, ptr %62, align 8, !tbaa !34
  ret ptr %2
}